; Function Attrs: mustprogress uwtable
define void @_ZN6icu_7514SearchIterator7setTextERNS_17CharacterIteratorER10UErrorCode(ptr noundef nonnull align 8 dereferenceable(88) %this, ptr noundef nonnull align 8 dereferenceable(24) %text, ptr noundef nonnull align 4 dereferenceable(4) %status) unnamed_addr #0 align 2 {
entry:
  %0 = load i32, ptr %status, align 4
  %cmp.i = icmp sgt i32 %0, 0
  br i1 %cmp.i, label %if.end, label %if.then

if.then:                                          ; preds = %entry
  %m_text_ = getelementptr inbounds i8, ptr %this, i64 24
  %vtable = load ptr, ptr %text, align 8
  %vfn = getelementptr inbounds i8, ptr %vtable, i64 208
  %1 = load ptr, ptr %vfn, align 8
  tail call void %1(ptr noundef nonnull align 8 dereferenceable(24) %text, ptr noundef nonnull align 8 dereferenceable(64) %m_text_)
  %vtable3 = load ptr, ptr %this, align 8
  %vfn4 = getelementptr inbounds i8, ptr %vtable3, i64 40
  %2 = load ptr, ptr %vfn4, align 8
  tail call void %2(ptr noundef nonnull align 8 dereferenceable(88) %this, ptr noundef nonnull align 8 dereferenceable(64) %m_text_, ptr noundef nonnull align 4 dereferenceable(4) %status)
  br label %if.end

if.end:                                           ; preds = %if.then, %entry
  ret void
}